target datalayout = "e-m:e-p270:32:32-p271:32:32-p272:64:64-i64:64-i128:128-f80:128-n8:16:32:64-S128"
target triple = "x86_64-pc-linux-gnu"

@proto_register_s5066dts.ett = internal global [5 x ptr] [ptr @ett_s5066dts, ptr @ett_s5066dts_eow, ptr @ett_s5066dts_address, ptr @ett_s5066dts_pdu, ptr @ett_s5066dts_hftrp_token], align 16
@proto_s5066dts = internal global i32 0, align 4
@.str.174 = private unnamed_addr constant [23 x i8] c"STANAG 5066(DTS layer)\00", align 1
@.str.175 = private unnamed_addr constant [16 x i8] c"STANAG 5066 DTS\00", align 1
@.str.176 = private unnamed_addr constant [9 x i8] c"s5066dts\00", align 1
@.str.177 = private unnamed_addr constant [13 x i8] c"s5066dts.raw\00", align 1
@s5066dts_handle = internal global ptr null, align 8
@s5066dts_over_tcp_handle = internal global ptr null, align 8
@.str.178 = private unnamed_addr constant [16 x i8] c"proto_desegment\00", align 1
@.str.179 = private unnamed_addr constant [60 x i8] c"Reassemble STANAG 5066 DPDUs spanning multiple TCP segments\00", align 1
@.str.180 = private unnamed_addr constant [99 x i8] c"Whether the STANAG 5066 DTS Layer dissector should reassemble DPDUs spanning multiple TCP segments\00", align 1
@config_proto_desegment = internal global i8 1, align 1

; Function Attrs: null_pointer_is_valid sspstrong uwtable
define hidden void @proto_register_s5066dts() #0 {
  %1 = alloca ptr, align 8
  %2 = alloca ptr, align 8
  call void @llvm.lifetime.start.p0(i64 8, ptr %1) #4
  call void @llvm.lifetime.start.p0(i64 8, ptr %2) #4
  %3 = load i32, ptr @proto_s5066dts, align 4
  %4 = icmp sle i32 %3, 0
  br i1 %4, label %5, label %15

5:                                                ; preds = %0
  %6 = call i32 @proto_register_protocol(ptr noundef @.str.174, ptr noundef @.str.175, ptr noundef @.str.176)
  store i32 %6, ptr @proto_s5066dts, align 4
  %7 = load i32, ptr @proto_s5066dts, align 4
  call void @proto_register_field_array(i32 noundef %7, ptr noundef @proto_register_s5066dts.hf, i32 noundef 101)
  call void @proto_register_subtree_array(ptr noundef @proto_register_s5066dts.ett, i32 noundef 5)
  %8 = load i32, ptr @proto_s5066dts, align 4
  %9 = call ptr @expert_register_protocol(i32 noundef %8)
  store ptr %9, ptr %2, align 8
  %10 = load ptr, ptr %2, align 8
  call void @expert_register_field_array(ptr noundef %10, ptr noundef @proto_register_s5066dts.ei, i32 noundef 2)
  %11 = load i32, ptr @proto_s5066dts, align 4
  %12 = call ptr @register_dissector(ptr noundef @.str.177, ptr noundef @dissect_s5066dts_raw, i32 noundef %11)
  store ptr %12, ptr @s5066dts_handle, align 8
  %13 = load i32, ptr @proto_s5066dts, align 4
  %14 = call ptr @register_dissector(ptr noundef @.str.176, ptr noundef @dissect_s5066dts_tcp, i32 noundef %13)
  store ptr %14, ptr @s5066dts_over_tcp_handle, align 8
  br label %15

15:                                               ; preds = %5, %0
  %16 = load i32, ptr @proto_s5066dts, align 4
  %17 = call ptr @prefs_register_protocol(i32 noundef %16, ptr noundef @apply_s5066dts_prefs)
  store ptr %17, ptr %1, align 8
  %18 = load ptr, ptr %1, align 8
  call void @prefs_register_bool_preference(ptr noundef %18, ptr noundef @.str.178, ptr noundef @.str.179, ptr noundef @.str.180, ptr noundef @config_proto_desegment)
  call void @llvm.lifetime.end.p0(i64 8, ptr %2) #4
  call void @llvm.lifetime.end.p0(i64 8, ptr %1) #4
  ret void
}