; Function Attrs: null_pointer_is_valid sspstrong uwtable
define hidden void @proto_register_s5066dts() local_unnamed_addr #0 {
  %1 = load i32, ptr @proto_s5066dts, align 4
  %2 = icmp slt i32 %1, 1
  br i1 %2, label %3, label %11

3:                                                ; preds = %0
  %4 = tail call i32 @proto_register_protocol(ptr noundef nonnull @.str.174, ptr noundef nonnull @.str.175, ptr noundef nonnull @.str.176)
  store i32 %4, ptr @proto_s5066dts, align 4
  tail call void @proto_register_field_array(i32 noundef %4, ptr noundef nonnull @proto_register_s5066dts.hf, i32 noundef 101)
  tail call void @proto_register_subtree_array(ptr noundef nonnull @proto_register_s5066dts.ett, i32 noundef 5)
  %5 = load i32, ptr @proto_s5066dts, align 4
  %6 = tail call ptr @expert_register_protocol(i32 noundef %5)
  tail call void @expert_register_field_array(ptr noundef %6, ptr noundef nonnull @proto_register_s5066dts.ei, i32 noundef 2)
  %7 = load i32, ptr @proto_s5066dts, align 4
  %8 = tail call ptr @register_dissector(ptr noundef nonnull @.str.177, ptr noundef nonnull @dissect_s5066dts_raw, i32 noundef %7)
  store ptr %8, ptr @s5066dts_handle, align 8
  %9 = load i32, ptr @proto_s5066dts, align 4
  %10 = tail call ptr @register_dissector(ptr noundef nonnull @.str.176, ptr noundef nonnull @dissect_s5066dts_tcp, i32 noundef %9)
  store ptr %10, ptr @s5066dts_over_tcp_handle, align 8
  %.pre = load i32, ptr @proto_s5066dts, align 4
  br label %11

11:                                               ; preds = %3, %0
  %12 = phi i32 [ %.pre, %3 ], [ %1, %0 ]
  %13 = tail call ptr @prefs_register_protocol(i32 noundef %12, ptr noundef nonnull @apply_s5066dts_prefs)
  tail call void @prefs_register_bool_preference(ptr noundef %13, ptr noundef nonnull @.str.178, ptr noundef nonnull @.str.179, ptr noundef nonnull @.str.180, ptr noundef nonnull @config_proto_desegment)
  ret void
}